target datalayout = "e-m:e-p270:32:32-p271:32:32-p272:64:64-i64:64-i128:128-f80:128-n8:16:32:64-S128"
target triple = "x86_64-pc-linux-gnu"

%struct.opj_codec_private = type { %union.anon, ptr, %struct.opj_event_mgr, i32, ptr, ptr, ptr, ptr }
%union.anon = type { %struct.opj_decompression }
%struct.opj_decompression = type { ptr, ptr, ptr, ptr, ptr, ptr, ptr, ptr, ptr, ptr, ptr, ptr }
%struct.opj_event_mgr = type { ptr, ptr, ptr, ptr, ptr, ptr }

; Function Attrs: nounwind uwtable
define hidden i32 @opj_set_decode_area(ptr noundef %0, ptr noundef %1, i32 noundef %2, i32 noundef %3, i32 noundef %4, i32 noundef %5) #0 {
  %7 = alloca i32, align 4
  %8 = alloca ptr, align 8
  %9 = alloca ptr, align 8
  %10 = alloca i32, align 4
  %11 = alloca i32, align 4
  %12 = alloca i32, align 4
  %13 = alloca i32, align 4
  %14 = alloca ptr, align 8
  %15 = alloca i32, align 4
  store ptr %0, ptr %8, align 8, !tbaa !3
  store ptr %1, ptr %9, align 8, !tbaa !42
  store i32 %2, ptr %10, align 4, !tbaa !20
  store i32 %3, ptr %11, align 4, !tbaa !20
  store i32 %4, ptr %12, align 4, !tbaa !20
  store i32 %5, ptr %13, align 4, !tbaa !20
  %16 = load ptr, ptr %8, align 8, !tbaa !3
  %17 = icmp ne ptr %16, null
  br i1 %17, label %18, label %42

18:                                               ; preds = %6
  call void @llvm.lifetime.start.p0(i64 8, ptr %14) #5
  %19 = load ptr, ptr %8, align 8, !tbaa !3
  store ptr %19, ptr %14, align 8, !tbaa !9
  %20 = load ptr, ptr %14, align 8, !tbaa !9
  %21 = getelementptr inbounds nuw %struct.opj_codec_private, ptr %20, i32 0, i32 3
  %22 = load i32, ptr %21, align 8, !tbaa !21
  %23 = icmp ne i32 %22, 0
  br i1 %23, label %25, label %24

24:                                               ; preds = %18
  store i32 0, ptr %7, align 4
  store i32 1, ptr %15, align 4
  br label %41

25:                                               ; preds = %18
  %26 = load ptr, ptr %14, align 8, !tbaa !9
  %27 = getelementptr inbounds nuw %struct.opj_codec_private, ptr %26, i32 0, i32 0
  %28 = getelementptr inbounds nuw %struct.opj_decompression, ptr %27, i32 0, i32 8
  %29 = load ptr, ptr %28, align 8, !tbaa !25
  %30 = load ptr, ptr %14, align 8, !tbaa !9
  %31 = getelementptr inbounds nuw %struct.opj_codec_private, ptr %30, i32 0, i32 1
  %32 = load ptr, ptr %31, align 8, !tbaa !27
  %33 = load ptr, ptr %9, align 8, !tbaa !42
  %34 = load i32, ptr %10, align 4, !tbaa !20
  %35 = load i32, ptr %11, align 4, !tbaa !20
  %36 = load i32, ptr %12, align 4, !tbaa !20
  %37 = load i32, ptr %13, align 4, !tbaa !20
  %38 = load ptr, ptr %14, align 8, !tbaa !9
  %39 = getelementptr inbounds nuw %struct.opj_codec_private, ptr %38, i32 0, i32 2
  %40 = call i32 %29(ptr noundef %32, ptr noundef %33, i32 noundef %34, i32 noundef %35, i32 noundef %36, i32 noundef %37, ptr noundef %39)
  store i32 %40, ptr %7, align 4
  store i32 1, ptr %15, align 4
  br label %41

41:                                               ; preds = %25, %24
  call void @llvm.lifetime.end.p0(i64 8, ptr %14) #5
  br label %43

42:                                               ; preds = %6
  store i32 0, ptr %7, align 4
  br label %43

43:                                               ; preds = %42, %41
  %44 = load i32, ptr %7, align 4
  ret i32 %44
}