; Function Attrs: nounwind uwtable
define hidden i32 @opj_set_decode_area(ptr noundef %0, ptr noundef %1, i32 noundef %2, i32 noundef %3, i32 noundef %4, i32 noundef %5) local_unnamed_addr #2 {
  %.not = icmp eq ptr %0, null
  br i1 %.not, label %17, label %7

7:                                                ; preds = %6
  %8 = getelementptr inbounds nuw i8, ptr %0, i64 152
  %9 = load i32, ptr %8, align 8, !tbaa !15
  %.not12 = icmp eq i32 %9, 0
  br i1 %.not12, label %17, label %10

10:                                               ; preds = %7
  %11 = getelementptr inbounds nuw i8, ptr %0, i64 64
  %12 = load ptr, ptr %11, align 8, !tbaa !19
  %13 = getelementptr inbounds nuw i8, ptr %0, i64 96
  %14 = load ptr, ptr %13, align 8, !tbaa !21
  %15 = getelementptr inbounds nuw i8, ptr %0, i64 104
  %16 = tail call i32 %12(ptr noundef %14, ptr noundef %1, i32 noundef %2, i32 noundef %3, i32 noundef %4, i32 noundef %5, ptr noundef nonnull %15) #8
  br label %17

17:                                               ; preds = %6, %10, %7
  %.1 = phi i32 [ %16, %10 ], [ 0, %7 ], [ 0, %6 ]
  ret i32 %.1
}